#include <math.h>
#include <stdio.h>
#include <stdlib.h>
#include <string.h>

int main()
{
	int m,n,a[100],i,j;
	double b[100],sum;
	scanf("%d",&m);
	for(i=0;i<m;i++)
	{
		sum=0.000;
		scanf("%d",&n);
		for(j=2;j<n+2;j++)
		{
			a[0]=1;a[1]=1;
			a[j]=a[j-2]+a[j-1];
			b[j]=(double)a[j]/a[j-1];
			sum=sum+b[j];
		}
		printf("%.3lf\n",sum);	
	}

	return 0;
}